; Function Attrs: inlinehint mustprogress nofree norecurse nosync nounwind willreturn memory(read, argmem: readwrite, inaccessiblemem: none) uwtable
define internal fastcc range(i32 -1094995529, 1048575) i32 @get_ue_golomb(ptr noundef captures(none) %0) unnamed_addr #1 {
  %2 = getelementptr inbounds nuw i8, ptr %0, i64 16
  %3 = load i32, ptr %2, align 8, !tbaa !4
  %4 = getelementptr inbounds nuw i8, ptr %0, i64 24
  %5 = load i32, ptr %4, align 8, !tbaa !11
  %6 = load ptr, ptr %0, align 8, !tbaa !12
  %7 = lshr i32 %3, 3
  %8 = zext nneg i32 %7 to i64
  %9 = getelementptr inbounds nuw i8, ptr %6, i64 %8
  %10 = load i32, ptr %9, align 1, !tbaa !13
  %11 = tail call i32 @llvm.bswap.i32(i32 %10)
  %12 = and i32 %3, 7
  %13 = shl i32 %11, %12
  %14 = icmp ugt i32 %13, 134217727
  br i1 %14, label %15, label %25

15:                                               ; preds = %1
  %16 = lshr i32 %13, 23
  %17 = zext nneg i32 %16 to i64
  %18 = getelementptr inbounds nuw [512 x i8], ptr @ff_golomb_vlc_len, i64 0, i64 %17
  %19 = load i8, ptr %18, align 1, !tbaa !13
  %20 = zext i8 %19 to i32
  %21 = add i32 %3, %20
  %. = tail call i32 @llvm.umin.i32(i32 %5, i32 %21)
  store i32 %., ptr %2, align 8, !tbaa !4
  %22 = getelementptr inbounds nuw [512 x i8], ptr @ff_ue_golomb_vlc_code, i64 0, i64 %17
  %23 = load i8, ptr %22, align 1, !tbaa !13
  %24 = zext i8 %23 to i32
  br label %40

25:                                               ; preds = %1
  %.not.i = icmp samesign ult i32 %13, 65536
  %26 = lshr i32 %13, 16
  %spec.select.i = select i1 %.not.i, i32 %13, i32 %26
  %spec.select12.i = select i1 %.not.i, i32 0, i32 16
  %.not11.i = icmp samesign ult i32 %spec.select.i, 256
  %27 = lshr i32 %spec.select.i, 8
  %28 = or disjoint i32 %spec.select12.i, 8
  %.110.i = select i1 %.not11.i, i32 %spec.select.i, i32 %27
  %.1.i = select i1 %.not11.i, i32 %spec.select12.i, i32 %28
  %29 = zext nneg i32 %.110.i to i64
  %30 = getelementptr inbounds nuw [256 x i8], ptr @ff_log2_tab, i64 0, i64 %29
  %31 = load i8, ptr %30, align 1, !tbaa !13
  %32 = zext i8 %31 to i32
  %33 = add nuw nsw i32 %.1.i, %32
  %34 = shl nuw nsw i32 %33, 1
  %35 = add nsw i32 %34, -31
  %reass.sub = add i32 %3, 63
  %36 = sub i32 %reass.sub, %34
  %.38 = tail call i32 @llvm.umin.i32(i32 %5, i32 %36)
  store i32 %.38, ptr %2, align 8, !tbaa !4
  %37 = icmp samesign ult i32 %33, 19
  %38 = lshr i32 %13, %35
  %39 = add nsw i32 %38, -1
  %.1 = select i1 %37, i32 -1094995529, i32 %39
  br label %40

40:                                               ; preds = %25, %15
  %.0 = phi i32 [ %24, %15 ], [ %.1, %25 ]
  ret i32 %.0
}